target datalayout = "e-m:e-p270:32:32-p271:32:32-p272:64:64-i64:64-i128:128-f80:128-n8:16:32:64-S128"
target triple = "x86_64-pc-linux-gnu"

%class.BinaryMagnitudeSeq = type { i64, ptr }

; Function Attrs: mustprogress nounwind uwtable
define hidden noundef i64 @_ZNK18BinaryMagnitudeSeq3numEv(ptr noundef nonnull align 8 dereferenceable(16) %0) #1 align 2 {
  %2 = alloca ptr, align 8
  %3 = alloca i64, align 8
  %4 = alloca i32, align 4
  store ptr %0, ptr %2, align 8
  %5 = load ptr, ptr %2, align 8
  store i64 0, ptr %3, align 8
  store i32 0, ptr %4, align 4
  br label %6

6:                                                ; preds = %18, %1
  %7 = load i32, ptr %4, align 4
  %8 = icmp slt i32 %7, 64
  br i1 %8, label %9, label %21

9:                                                ; preds = %6
  %10 = getelementptr inbounds %class.BinaryMagnitudeSeq, ptr %5, i32 0, i32 1
  %11 = load ptr, ptr %10, align 8
  %12 = load i32, ptr %4, align 4
  %13 = sext i32 %12 to i64
  %14 = getelementptr inbounds i64, ptr %11, i64 %13
  %15 = load i64, ptr %14, align 8
  %16 = load i64, ptr %3, align 8
  %17 = add i64 %16, %15
  store i64 %17, ptr %3, align 8
  br label %18

18:                                               ; preds = %9
  %19 = load i32, ptr %4, align 4
  %20 = add nsw i32 %19, 1
  store i32 %20, ptr %4, align 4
  br label %6, !llvm.loop !15

21:                                               ; preds = %6
  %22 = load i64, ptr %3, align 8
  ret i64 %22
}