; Function Attrs: mustprogress nofree norecurse nosync nounwind willreturn memory(read, inaccessiblemem: none) uwtable
define hidden noundef i64 @_ZNK18BinaryMagnitudeSeq3numEv(ptr nocapture noundef nonnull readonly align 8 dereferenceable(16) %0) local_unnamed_addr #3 align 2 {
  %2 = getelementptr inbounds i8, ptr %0, i64 8
  %3 = load ptr, ptr %2, align 8
  br label %4

4:                                                ; preds = %1, %4
  %indvars.iv = phi i64 [ 0, %1 ], [ %indvars.iv.next, %4 ]
  %.056 = phi i64 [ 0, %1 ], [ %7, %4 ]
  %5 = getelementptr inbounds i64, ptr %3, i64 %indvars.iv
  %6 = load i64, ptr %5, align 8
  %7 = add i64 %6, %.056
  %indvars.iv.next = add nuw nsw i64 %indvars.iv, 1
  %exitcond.not = icmp eq i64 %indvars.iv.next, 64
  br i1 %exitcond.not, label %8, label %4, !llvm.loop !15

8:                                                ; preds = %4
  ret i64 %7
}